target datalayout = "e-m:e-p270:32:32-p271:32:32-p272:64:64-i64:64-i128:128-f80:128-n8:16:32:64-S128"
target triple = "x86_64-unknown-linux-gnu"

%"class.std::__cxx11::basic_string" = type { %"struct.std::__cxx11::basic_string<char>::_Alloc_hider", i64, %union.anon }
%"struct.std::__cxx11::basic_string<char>::_Alloc_hider" = type { ptr }
%union.anon = type { i64, [8 x i8] }
%"class.google::protobuf::compiler::csharp::ReflectionClassGenerator" = type { %"class.google::protobuf::compiler::csharp::SourceGeneratorBase", ptr, %"class.std::__cxx11::basic_string", %"class.std::__cxx11::basic_string", %"class.std::__cxx11::basic_string" }
%"class.google::protobuf::compiler::csharp::SourceGeneratorBase" = type { ptr, ptr }

; Function Attrs: mustprogress nounwind uwtable
define hidden void @_ZN6google8protobuf8compiler6csharp24ReflectionClassGeneratorD2Ev(ptr noundef nonnull align 8 dereferenceable(120) %this) unnamed_addr #5 align 2 {
entry:
  %this.addr = alloca ptr, align 8
  store ptr %this, ptr %this.addr, align 8
  %this1 = load ptr, ptr %this.addr, align 8
  store ptr getelementptr inbounds ({ [4 x ptr] }, ptr @_ZTVN6google8protobuf8compiler6csharp24ReflectionClassGeneratorE, i32 0, i32 0, i32 2), ptr %this1, align 8
  %extensionClassname_ = getelementptr inbounds %"class.google::protobuf::compiler::csharp::ReflectionClassGenerator", ptr %this1, i32 0, i32 4
  call void @_ZNSt7__cxx1112basic_stringIcSt11char_traitsIcESaIcEED1Ev(ptr noundef nonnull align 8 dereferenceable(32) %extensionClassname_) #3
  %reflectionClassname_ = getelementptr inbounds %"class.google::protobuf::compiler::csharp::ReflectionClassGenerator", ptr %this1, i32 0, i32 3
  call void @_ZNSt7__cxx1112basic_stringIcSt11char_traitsIcESaIcEED1Ev(ptr noundef nonnull align 8 dereferenceable(32) %reflectionClassname_) #3
  %namespace_ = getelementptr inbounds %"class.google::protobuf::compiler::csharp::ReflectionClassGenerator", ptr %this1, i32 0, i32 2
  call void @_ZNSt7__cxx1112basic_stringIcSt11char_traitsIcESaIcEED1Ev(ptr noundef nonnull align 8 dereferenceable(32) %namespace_) #3
  call void @_ZN6google8protobuf8compiler6csharp19SourceGeneratorBaseD2Ev(ptr noundef nonnull align 8 dereferenceable(16) %this1) #3
  ret void
}